; Function Attrs: nounwind uwtable
define dso_local noundef i32 @git_color_config(ptr noundef %0, ptr noundef %1, ptr noundef readnone captures(none) %2) local_unnamed_addr #0 {
  %4 = tail call i32 @strcmp(ptr noundef nonnull dereferenceable(1) %0, ptr noundef nonnull dereferenceable(9) @.str.22) #14
  %.not = icmp eq i32 %4, 0
  br i1 %.not, label %5, label %14

5:                                                ; preds = %3
  %.not.i = icmp eq ptr %1, null
  br i1 %.not.i, label %12, label %6

6:                                                ; preds = %5
  %7 = tail call i32 @strcasecmp(ptr noundef nonnull %1, ptr noundef nonnull @.str.18) #14
  %.not9.i = icmp eq i32 %7, 0
  br i1 %.not9.i, label %git_config_colorbool.exit, label %8

8:                                                ; preds = %6
  %9 = tail call i32 @strcasecmp(ptr noundef nonnull %1, ptr noundef nonnull @.str.19) #14
  %.not10.i = icmp eq i32 %9, 0
  br i1 %.not10.i, label %git_config_colorbool.exit, label %10

10:                                               ; preds = %8
  %11 = tail call i32 @strcasecmp(ptr noundef nonnull %1, ptr noundef nonnull @.str.20) #14
  %.not11.i = icmp eq i32 %11, 0
  br i1 %.not11.i, label %git_config_colorbool.exit, label %12

12:                                               ; preds = %5, %10
  %13 = tail call i32 @git_config_bool(ptr noundef nonnull %0, ptr noundef %1) #15
  %.not13.i = icmp eq i32 %13, 0
  %..i = select i1 %.not13.i, i32 0, i32 2
  br label %git_config_colorbool.exit

git_config_colorbool.exit:                        ; preds = %6, %8, %10, %12
  %.0.i = phi i32 [ 0, %6 ], [ 1, %8 ], [ 2, %10 ], [ %..i, %12 ]
  store i32 %.0.i, ptr @git_use_color_default, align 4, !tbaa !22
  br label %14

14:                                               ; preds = %3, %git_config_colorbool.exit
  ret i32 0
}